target datalayout = "e-m:e-p270:32:32-p271:32:32-p272:64:64-i64:64-i128:128-f80:128-n8:16:32:64-S128"
target triple = "x86_64-pc-linux-gnu"

%struct.asn1_string_st = type { i32, i32, ptr, i64 }

@.str = private unnamed_addr constant [34 x i8] c"../openssl/crypto/ocsp/ocsp_ext.c\00", align 1

; Function Attrs: nounwind uwtable
define internal i32 @ocsp_add1_nonce(ptr noundef %0, ptr noundef %1, i32 noundef %2) #0 {
  %4 = alloca i32, align 4
  %5 = alloca ptr, align 8
  %6 = alloca ptr, align 8
  %7 = alloca i32, align 4
  %8 = alloca ptr, align 8
  %9 = alloca %struct.asn1_string_st, align 8
  %10 = alloca i32, align 4
  %11 = alloca i32, align 4
  store ptr %0, ptr %5, align 8, !tbaa !49
  store ptr %1, ptr %6, align 8, !tbaa !47
  store i32 %2, ptr %7, align 4, !tbaa !16
  call void @llvm.lifetime.start.p0(i64 8, ptr %8) #5
  call void @llvm.lifetime.start.p0(i64 24, ptr %9) #5
  call void @llvm.lifetime.start.p0(i64 4, ptr %10) #5
  store i32 0, ptr %10, align 4, !tbaa !16
  %12 = load i32, ptr %7, align 4, !tbaa !16
  %13 = icmp sle i32 %12, 0
  br i1 %13, label %14, label %15

14:                                               ; preds = %3
  store i32 16, ptr %7, align 4, !tbaa !16
  br label %15

15:                                               ; preds = %14, %3
  %16 = load i32, ptr %7, align 4, !tbaa !16
  %17 = call i32 @ASN1_object_size(i32 noundef 0, i32 noundef %16, i32 noundef 4)
  %18 = getelementptr inbounds nuw %struct.asn1_string_st, ptr %9, i32 0, i32 0
  store i32 %17, ptr %18, align 8, !tbaa !51
  %19 = getelementptr inbounds nuw %struct.asn1_string_st, ptr %9, i32 0, i32 0
  %20 = load i32, ptr %19, align 8, !tbaa !51
  %21 = icmp slt i32 %20, 0
  br i1 %21, label %22, label %23

22:                                               ; preds = %15
  store i32 0, ptr %4, align 4
  store i32 1, ptr %11, align 4
  br label %61

23:                                               ; preds = %15
  %24 = getelementptr inbounds nuw %struct.asn1_string_st, ptr %9, i32 0, i32 0
  %25 = load i32, ptr %24, align 8, !tbaa !51
  %26 = sext i32 %25 to i64
  %27 = call noalias ptr @CRYPTO_malloc(i64 noundef %26, ptr noundef @.str, i32 noundef 262)
  %28 = getelementptr inbounds nuw %struct.asn1_string_st, ptr %9, i32 0, i32 2
  store ptr %27, ptr %28, align 8, !tbaa !53
  %29 = getelementptr inbounds nuw %struct.asn1_string_st, ptr %9, i32 0, i32 2
  %30 = load ptr, ptr %29, align 8, !tbaa !53
  %31 = icmp eq ptr %30, null
  br i1 %31, label %32, label %33

32:                                               ; preds = %23
  br label %57

33:                                               ; preds = %23
  %34 = getelementptr inbounds nuw %struct.asn1_string_st, ptr %9, i32 0, i32 2
  %35 = load ptr, ptr %34, align 8, !tbaa !53
  store ptr %35, ptr %8, align 8, !tbaa !47
  %36 = load i32, ptr %7, align 4, !tbaa !16
  call void @ASN1_put_object(ptr noundef %8, i32 noundef 0, i32 noundef %36, i32 noundef 4, i32 noundef 0)
  %37 = load ptr, ptr %6, align 8, !tbaa !47
  %38 = icmp ne ptr %37, null
  br i1 %38, label %39, label %44

39:                                               ; preds = %33
  %40 = load ptr, ptr %8, align 8, !tbaa !47
  %41 = load ptr, ptr %6, align 8, !tbaa !47
  %42 = load i32, ptr %7, align 4, !tbaa !16
  %43 = sext i32 %42 to i64
  call void @llvm.memcpy.p0.p0.i64(ptr align 1 %40, ptr align 1 %41, i64 %43, i1 false)
  br label %51

44:                                               ; preds = %33
  %45 = load ptr, ptr %8, align 8, !tbaa !47
  %46 = load i32, ptr %7, align 4, !tbaa !16
  %47 = call i32 @RAND_bytes(ptr noundef %45, i32 noundef %46)
  %48 = icmp sle i32 %47, 0
  br i1 %48, label %49, label %50

49:                                               ; preds = %44
  br label %57

50:                                               ; preds = %44
  br label %51

51:                                               ; preds = %50, %39
  %52 = load ptr, ptr %5, align 8, !tbaa !49
  %53 = call i32 @X509V3_add1_i2d(ptr noundef %52, i32 noundef 366, ptr noundef %9, i32 noundef 0, i64 noundef 2)
  %54 = icmp sle i32 %53, 0
  br i1 %54, label %55, label %56

55:                                               ; preds = %51
  br label %57

56:                                               ; preds = %51
  store i32 1, ptr %10, align 4, !tbaa !16
  br label %57

57:                                               ; preds = %56, %55, %49, %32
  %58 = getelementptr inbounds nuw %struct.asn1_string_st, ptr %9, i32 0, i32 2
  %59 = load ptr, ptr %58, align 8, !tbaa !53
  call void @CRYPTO_free(ptr noundef %59, ptr noundef @.str, i32 noundef 276)
  %60 = load i32, ptr %10, align 4, !tbaa !16
  store i32 %60, ptr %4, align 4
  store i32 1, ptr %11, align 4
  br label %61

61:                                               ; preds = %57, %22
  call void @llvm.lifetime.end.p0(i64 4, ptr %10) #5
  call void @llvm.lifetime.end.p0(i64 24, ptr %9) #5
  call void @llvm.lifetime.end.p0(i64 8, ptr %8) #5
  %62 = load i32, ptr %4, align 4
  ret i32 %62
}