; Function Attrs: nounwind uwtable
define internal fastcc range(i32 0, 2) i32 @ocsp_add1_nonce(ptr noundef %0, ptr noundef readonly captures(address_is_null) %1, i32 noundef %2) unnamed_addr #0 {
  %4 = alloca ptr, align 8
  %5 = alloca %struct.asn1_string_st, align 8
  call void @llvm.lifetime.start.p0(i64 8, ptr nonnull %4) #4
  call void @llvm.lifetime.start.p0(i64 24, ptr nonnull %5) #4
  %6 = icmp slt i32 %2, 1
  %spec.store.select = select i1 %6, i32 16, i32 %2
  %7 = tail call i32 @ASN1_object_size(i32 noundef 0, i32 noundef %spec.store.select, i32 noundef 4) #4
  store i32 %7, ptr %5, align 8, !tbaa !30
  %8 = icmp slt i32 %7, 0
  br i1 %8, label %26, label %9

9:                                                ; preds = %3
  %10 = zext nneg i32 %7 to i64
  %11 = tail call noalias ptr @CRYPTO_malloc(i64 noundef %10, ptr noundef nonnull @.str, i32 noundef 262) #4
  %12 = getelementptr inbounds nuw i8, ptr %5, i64 8
  store ptr %11, ptr %12, align 8, !tbaa !34
  %13 = icmp eq ptr %11, null
  br i1 %13, label %24, label %14

14:                                               ; preds = %9
  store ptr %11, ptr %4, align 8, !tbaa !35
  call void @ASN1_put_object(ptr noundef nonnull %4, i32 noundef 0, i32 noundef %spec.store.select, i32 noundef 4, i32 noundef 0) #4
  %.not = icmp eq ptr %1, null
  %15 = load ptr, ptr %4, align 8, !tbaa !35
  br i1 %.not, label %18, label %16

16:                                               ; preds = %14
  %17 = zext nneg i32 %spec.store.select to i64
  call void @llvm.memcpy.p0.p0.i64(ptr noundef nonnull align 1 dereferenceable(1) %15, ptr noundef nonnull align 1 dereferenceable(1) %1, i64 %17, i1 false)
  br label %21

18:                                               ; preds = %14
  %19 = call i32 @RAND_bytes(ptr noundef %15, i32 noundef %spec.store.select) #4
  %20 = icmp slt i32 %19, 1
  br i1 %20, label %24, label %21

21:                                               ; preds = %18, %16
  %22 = call i32 @X509V3_add1_i2d(ptr noundef %0, i32 noundef 366, ptr noundef nonnull %5, i32 noundef 0, i64 noundef 2) #4
  %23 = icmp sgt i32 %22, 0
  %spec.select = zext i1 %23 to i32
  %.pre = load ptr, ptr %12, align 8, !tbaa !34
  br label %24

24:                                               ; preds = %21, %18, %9
  %25 = phi ptr [ null, %9 ], [ %11, %18 ], [ %.pre, %21 ]
  %.0 = phi i32 [ 0, %9 ], [ 0, %18 ], [ %spec.select, %21 ]
  call void @CRYPTO_free(ptr noundef %25, ptr noundef nonnull @.str, i32 noundef 276) #4
  br label %26

26:                                               ; preds = %3, %24
  %.09 = phi i32 [ %.0, %24 ], [ 0, %3 ]
  call void @llvm.lifetime.end.p0(i64 24, ptr nonnull %5) #4
  call void @llvm.lifetime.end.p0(i64 8, ptr nonnull %4) #4
  ret i32 %.09
}